target datalayout = "e-m:e-p270:32:32-p271:32:32-p272:64:64-i64:64-i128:128-f80:128-n8:16:32:64-S128"
target triple = "x86_64-pc-linux-gnu"

%struct.epan_dissect = type { ptr, ptr, ptr, %struct._packet_info }
%struct._packet_info = type { ptr, ptr, i32, i32, %struct.nstime_t, %struct.nstime_t, %struct.nstime_t, i8, ptr, ptr, ptr, ptr, %struct._address, %struct._address, %struct._address, %struct._address, %struct._address, %struct._address, i32, ptr, i8, [3 x i8], %struct.anon, i32, i32, i32, i32, ptr, i8, ptr, ptr, i16, i16, i32, i32, i16, i32, i32, ptr, ptr, ptr, i8, i8, i16, i16, i16, i32, i16, i16, ptr, ptr, ptr, ptr, ptr, i32, i32 }
%struct.nstime_t = type { i64, i32 }
%struct._address = type { i32, i32, ptr, ptr }
%struct.anon = type { i8, [3 x i8] }

@.str.83 = private unnamed_addr constant [9 x i8] c"%Y-%m-%d\00", align 1
@.str.84 = private unnamed_addr constant [11 x i8] c"XXXX-XX-XX\00", align 1
@.str.85 = private unnamed_addr constant [7 x i8] c"_index\00", align 1
@.str.86 = private unnamed_addr constant [11 x i8] c"packets-%s\00", align 1

; Function Attrs: null_pointer_is_valid sspstrong uwtable
define internal void @write_json_index(ptr noundef %0, ptr noundef %1) #0 {
  %3 = alloca ptr, align 8
  %4 = alloca ptr, align 8
  %5 = alloca [30 x i8], align 16
  %6 = alloca ptr, align 8
  %7 = alloca ptr, align 8
  store ptr %0, ptr %3, align 8
  store ptr %1, ptr %4, align 8
  call void @llvm.lifetime.start.p0(i64 30, ptr %5) #15
  call void @llvm.lifetime.start.p0(i64 8, ptr %6) #15
  call void @llvm.lifetime.start.p0(i64 8, ptr %7) #15
  %8 = load ptr, ptr %4, align 8
  %9 = getelementptr inbounds nuw %struct.epan_dissect, ptr %8, i32 0, i32 3
  %10 = getelementptr inbounds nuw %struct._packet_info, ptr %9, i32 0, i32 4
  %11 = getelementptr inbounds nuw %struct.nstime_t, ptr %10, i32 0, i32 0
  %12 = call ptr @localtime(ptr noundef %11) #15
  store ptr %12, ptr %6, align 8
  %13 = load ptr, ptr %6, align 8
  %14 = icmp ne ptr %13, null
  br i1 %14, label %15, label %19

15:                                               ; preds = %2
  %16 = getelementptr inbounds [30 x i8], ptr %5, i64 0, i64 0
  %17 = load ptr, ptr %6, align 8
  %18 = call i64 @strftime(ptr noundef %16, i64 noundef 30, ptr noundef @.str.83, ptr noundef %17) #15
  br label %22

19:                                               ; preds = %2
  %20 = getelementptr inbounds [30 x i8], ptr %5, i64 0, i64 0
  %21 = call i64 @g_strlcpy(ptr noundef %20, ptr noundef @.str.84, i64 noundef 30)
  br label %22

22:                                               ; preds = %19, %15
  %23 = load ptr, ptr %3, align 8
  call void @json_dumper_set_member_name(ptr noundef %23, ptr noundef @.str.85)
  %24 = getelementptr inbounds [30 x i8], ptr %5, i64 0, i64 0
  %25 = call noalias ptr (ptr, ptr, ...) @wmem_strdup_printf(ptr noundef null, ptr noundef @.str.86, ptr noundef %24)
  store ptr %25, ptr %7, align 8
  %26 = load ptr, ptr %3, align 8
  %27 = load ptr, ptr %7, align 8
  call void @json_dumper_value_string(ptr noundef %26, ptr noundef %27)
  %28 = load ptr, ptr %7, align 8
  call void @g_free(ptr noundef %28)
  call void @llvm.lifetime.end.p0(i64 8, ptr %7) #15
  call void @llvm.lifetime.end.p0(i64 8, ptr %6) #15
  call void @llvm.lifetime.end.p0(i64 30, ptr %5) #15
  ret void
}