; Function Attrs: null_pointer_is_valid sspstrong uwtable
define internal fastcc void @write_json_index(ptr noundef %0, ptr noundef %1) unnamed_addr #0 {
  %3 = alloca [30 x i8], align 16
  call void @llvm.lifetime.start.p0(i64 30, ptr nonnull %3) #21
  %4 = getelementptr inbounds nuw i8, ptr %1, i64 48
  %5 = tail call ptr @localtime(ptr noundef nonnull %4) #21
  %.not = icmp eq ptr %5, null
  br i1 %.not, label %8, label %6

6:                                                ; preds = %2
  %7 = call i64 @strftime(ptr noundef nonnull %3, i64 noundef 30, ptr noundef nonnull @.str.83, ptr noundef nonnull %5) #21
  br label %10

8:                                                ; preds = %2
  %9 = call i64 @g_strlcpy(ptr noundef nonnull %3, ptr noundef nonnull @.str.84, i64 noundef 30)
  br label %10

10:                                               ; preds = %8, %6
  call void @json_dumper_set_member_name(ptr noundef %0, ptr noundef nonnull @.str.85)
  %11 = call noalias ptr (ptr, ptr, ...) @wmem_strdup_printf(ptr noundef null, ptr noundef nonnull @.str.86, ptr noundef nonnull %3)
  call void @json_dumper_value_string(ptr noundef %0, ptr noundef %11)
  call void @g_free(ptr noundef %11)
  call void @llvm.lifetime.end.p0(i64 30, ptr nonnull %3) #21
  ret void
}